target datalayout = "e-m:e-p270:32:32-p271:32:32-p272:64:64-i64:64-i128:128-f80:128-n8:16:32:64-S128"
target triple = "x86_64-pc-linux-gnu"

%"struct.duckdb_zstd::ZSTD_customMem" = type { ptr, ptr, ptr }
%"struct.duckdb_zstd::ZSTD_frameParameters" = type { i32, i32, i32 }
%"struct.duckdb_zstd::ZSTD_compressionParameters" = type { i32, i32, i32, i32, i32, i32, i32 }
%"struct.duckdb_zstd::ZSTD_CCtx_s" = type { i32, i32, i32, %"struct.duckdb_zstd::ZSTD_CCtx_params_s", %"struct.duckdb_zstd::ZSTD_CCtx_params_s", %"struct.duckdb_zstd::ZSTD_CCtx_params_s", i32, i64, %"struct.duckdb_zstd::ZSTD_cwksp", i64, i64, i64, i64, %"struct.duckdb_zstd::XXH64_state_s", %"struct.duckdb_zstd::ZSTD_customMem", ptr, i64, %"struct.duckdb_zstd::SeqCollector", i32, i32, %"struct.duckdb_zstd::seqStore_t", %"struct.duckdb_zstd::ldmState_t", ptr, i64, %"struct.duckdb_zstd::rawSeqStore_t", %"struct.duckdb_zstd::ZSTD_blockState_t", ptr, i32, ptr, i64, i64, i64, i64, ptr, i64, i64, i64, i32, i32, %"struct.duckdb_zstd::ZSTD_inBuffer_s", i64, i64, %"struct.duckdb_zstd::ZSTD_localDict", ptr, %"struct.duckdb_zstd::ZSTD_prefixDict_s", i64, %"struct.duckdb_zstd::ZSTD_blockSplitCtx", ptr, i64 }
%"struct.duckdb_zstd::ZSTD_CCtx_params_s" = type { i32, %"struct.duckdb_zstd::ZSTD_compressionParameters", %"struct.duckdb_zstd::ZSTD_frameParameters", i32, i32, i64, i32, i32, i32, i32, i64, i32, i32, %"struct.duckdb_zstd::ldmParams_t", i32, i32, i32, i32, i32, i32, i32, i32, %"struct.duckdb_zstd::ZSTD_customMem", i32, i32, ptr, ptr, i64, i32 }
%"struct.duckdb_zstd::ldmParams_t" = type { i32, i32, i32, i32, i32, i32 }
%"struct.duckdb_zstd::ZSTD_cwksp" = type { ptr, ptr, ptr, ptr, ptr, ptr, ptr, i8, i32, i32, i32 }
%"struct.duckdb_zstd::XXH64_state_s" = type { i64, i64, i64, i64, i64, [4 x i64], i32, [2 x i32] }
%"struct.duckdb_zstd::SeqCollector" = type { i32, ptr, i64, i64 }
%"struct.duckdb_zstd::seqStore_t" = type { ptr, ptr, ptr, ptr, ptr, ptr, ptr, i64, i64, i32, i32 }
%"struct.duckdb_zstd::ldmState_t" = type { %"struct.duckdb_zstd::ZSTD_window_t", ptr, i32, ptr, [64 x i64], [64 x %"struct.duckdb_zstd::ldmMatchCandidate_t"] }
%"struct.duckdb_zstd::ZSTD_window_t" = type { ptr, ptr, ptr, i32, i32, i32 }
%"struct.duckdb_zstd::ldmMatchCandidate_t" = type { ptr, i32, i32, ptr }
%"struct.duckdb_zstd::rawSeqStore_t" = type { ptr, i64, i64, i64, i64 }
%"struct.duckdb_zstd::ZSTD_blockState_t" = type { ptr, ptr, %"struct.duckdb_zstd::ZSTD_matchState_t" }
%"struct.duckdb_zstd::ZSTD_matchState_t" = type { %"struct.duckdb_zstd::ZSTD_window_t", i32, i32, i32, i32, ptr, [8 x i32], i64, i32, ptr, ptr, ptr, i32, i32, %"struct.duckdb_zstd::optState_t", ptr, %"struct.duckdb_zstd::ZSTD_compressionParameters", ptr, i32, i32 }
%"struct.duckdb_zstd::optState_t" = type { ptr, ptr, ptr, ptr, ptr, ptr, i32, i32, i32, i32, i32, i32, i32, i32, i32, ptr, i32 }
%"struct.duckdb_zstd::ZSTD_inBuffer_s" = type { ptr, i64, i64 }
%"struct.duckdb_zstd::ZSTD_localDict" = type { ptr, ptr, i64, i32, ptr }
%"struct.duckdb_zstd::ZSTD_prefixDict_s" = type { ptr, i64, i32 }
%"struct.duckdb_zstd::ZSTD_blockSplitCtx" = type { %"struct.duckdb_zstd::seqStore_t", %"struct.duckdb_zstd::seqStore_t", %"struct.duckdb_zstd::seqStore_t", %"struct.duckdb_zstd::seqStore_t", %"struct.duckdb_zstd::seqStore_t", [196 x i32], %"struct.duckdb_zstd::ZSTD_entropyCTablesMetadata_t" }
%"struct.duckdb_zstd::ZSTD_entropyCTablesMetadata_t" = type { %"struct.duckdb_zstd::ZSTD_hufCTablesMetadata_t", %"struct.duckdb_zstd::ZSTD_fseCTablesMetadata_t" }
%"struct.duckdb_zstd::ZSTD_hufCTablesMetadata_t" = type { i32, [128 x i8], i64 }
%"struct.duckdb_zstd::ZSTD_fseCTablesMetadata_t" = type { i32, i32, i32, [133 x i8], i64, i64 }
%"struct.duckdb_zstd::ZSTD_compressedBlockState_t" = type { %"struct.duckdb_zstd::ZSTD_entropyCTables_t", [3 x i32] }
%"struct.duckdb_zstd::ZSTD_entropyCTables_t" = type { %"struct.duckdb_zstd::ZSTD_hufCTables_t", %"struct.duckdb_zstd::ZSTD_fseCTables_t" }
%"struct.duckdb_zstd::ZSTD_hufCTables_t" = type { [257 x i64], i32 }
%"struct.duckdb_zstd::ZSTD_fseCTables_t" = type { [193 x i32], [363 x i32], [329 x i32], i32, i32, i32 }
%"struct.duckdb_zstd::ZSTD_CDict_s" = type { ptr, i64, i32, ptr, %"struct.duckdb_zstd::ZSTD_cwksp", %"struct.duckdb_zstd::ZSTD_matchState_t", %"struct.duckdb_zstd::ZSTD_compressedBlockState_t", %"struct.duckdb_zstd::ZSTD_customMem", i32, i32, i32 }

; Function Attrs: mustprogress uwtable
define noundef i64 @_ZN11duckdb_zstd17ZSTD_sizeof_CDictEPKNS_12ZSTD_CDict_sE(ptr noundef %0) #2 {
  %2 = alloca i64, align 8
  %3 = alloca ptr, align 8
  store ptr %0, ptr %3, align 8, !tbaa !92
  %4 = load ptr, ptr %3, align 8, !tbaa !92
  %5 = icmp eq ptr %4, null
  br i1 %5, label %6, label %7

6:                                                ; preds = %1
  store i64 0, ptr %2, align 8
  br label %21

7:                                                ; preds = %1
  br label %8

8:                                                ; preds = %7
  br label %9

9:                                                ; preds = %8
  %10 = load ptr, ptr %3, align 8, !tbaa !92
  %11 = getelementptr inbounds nuw %"struct.duckdb_zstd::ZSTD_CDict_s", ptr %10, i32 0, i32 4
  %12 = getelementptr inbounds nuw %"struct.duckdb_zstd::ZSTD_cwksp", ptr %11, i32 0, i32 0
  %13 = load ptr, ptr %12, align 8, !tbaa !316
  %14 = load ptr, ptr %3, align 8, !tbaa !92
  %15 = icmp eq ptr %13, %14
  %16 = select i1 %15, i64 0, i64 6080
  %17 = load ptr, ptr %3, align 8, !tbaa !92
  %18 = getelementptr inbounds nuw %"struct.duckdb_zstd::ZSTD_CDict_s", ptr %17, i32 0, i32 4
  %19 = call noundef i64 @_ZN11duckdb_zstdL17ZSTD_cwksp_sizeofEPKNS_10ZSTD_cwkspE(ptr noundef %18)
  %20 = add i64 %16, %19
  store i64 %20, ptr %2, align 8
  br label %21

21:                                               ; preds = %9, %6
  %22 = load i64, ptr %2, align 8
  ret i64 %22
}

; Function Attrs: mustprogress nounwind uwtable
define internal noundef i64 @_ZN11duckdb_zstdL17ZSTD_sizeof_mtctxEPKNS_11ZSTD_CCtx_sE(ptr noundef %0) #0 {
  %2 = alloca ptr, align 8
  store ptr %0, ptr %2, align 8, !tbaa !13
  ret i64 0
}

; Function Attrs: mustprogress uwtable
define internal noundef i64 @_ZN11duckdb_zstdL21ZSTD_sizeof_localDictENS_14ZSTD_localDictE(ptr noundef byval(%"struct.duckdb_zstd::ZSTD_localDict") align 8 %0) #2 {
  %2 = alloca i64, align 8
  %3 = alloca i64, align 8
  call void @llvm.lifetime.start.p0(i64 8, ptr %2) #16
  %4 = getelementptr inbounds nuw %"struct.duckdb_zstd::ZSTD_localDict", ptr %0, i32 0, i32 0
  %5 = load ptr, ptr %4, align 8, !tbaa !93
  %6 = icmp ne ptr %5, null
  br i1 %6, label %7, label %10

7:                                                ; preds = %1
  %8 = getelementptr inbounds nuw %"struct.duckdb_zstd::ZSTD_localDict", ptr %0, i32 0, i32 2
  %9 = load i64, ptr %8, align 8, !tbaa !94
  br label %11

10:                                               ; preds = %1
  br label %11

11:                                               ; preds = %10, %7
  %12 = phi i64 [ %9, %7 ], [ 0, %10 ]
  store i64 %12, ptr %2, align 8, !tbaa !3
  call void @llvm.lifetime.start.p0(i64 8, ptr %3) #16
  %13 = getelementptr inbounds nuw %"struct.duckdb_zstd::ZSTD_localDict", ptr %0, i32 0, i32 4
  %14 = load ptr, ptr %13, align 8, !tbaa !95
  %15 = call noundef i64 @_ZN11duckdb_zstd17ZSTD_sizeof_CDictEPKNS_12ZSTD_CDict_sE(ptr noundef %14)
  store i64 %15, ptr %3, align 8, !tbaa !3
  %16 = load i64, ptr %2, align 8, !tbaa !3
  %17 = load i64, ptr %3, align 8, !tbaa !3
  %18 = add i64 %16, %17
  call void @llvm.lifetime.end.p0(i64 8, ptr %3) #16
  call void @llvm.lifetime.end.p0(i64 8, ptr %2) #16
  ret i64 %18
}

; Function Attrs: inlinehint mustprogress nounwind uwtable
define internal noundef i64 @_ZN11duckdb_zstdL17ZSTD_cwksp_sizeofEPKNS_10ZSTD_cwkspE(ptr noundef %0) #6 {
  %2 = alloca ptr, align 8
  store ptr %0, ptr %2, align 8, !tbaa !8
  %3 = load ptr, ptr %2, align 8, !tbaa !8
  %4 = getelementptr inbounds nuw %"struct.duckdb_zstd::ZSTD_cwksp", ptr %3, i32 0, i32 1
  %5 = load ptr, ptr %4, align 8, !tbaa !68
  %6 = load ptr, ptr %2, align 8, !tbaa !8
  %7 = getelementptr inbounds nuw %"struct.duckdb_zstd::ZSTD_cwksp", ptr %6, i32 0, i32 0
  %8 = load ptr, ptr %7, align 8, !tbaa !67
  %9 = ptrtoint ptr %5 to i64
  %10 = ptrtoint ptr %8 to i64
  %11 = sub i64 %9, %10
  ret i64 %11
}

; Function Attrs: mustprogress uwtable
define noundef i64 @_ZN11duckdb_zstd16ZSTD_sizeof_CCtxEPKNS_11ZSTD_CCtx_sE(ptr noundef %0) #2 {
  %2 = alloca i64, align 8
  %3 = alloca ptr, align 8
  %4 = alloca %"struct.duckdb_zstd::ZSTD_localDict", align 8
  store ptr %0, ptr %3, align 8, !tbaa !13
  %5 = load ptr, ptr %3, align 8, !tbaa !13
  %6 = icmp eq ptr %5, null
  br i1 %6, label %7, label %8

7:                                                ; preds = %1
  store i64 0, ptr %2, align 8
  br label %27

8:                                                ; preds = %1
  %9 = load ptr, ptr %3, align 8, !tbaa !13
  %10 = getelementptr inbounds nuw %"struct.duckdb_zstd::ZSTD_CCtx_s", ptr %9, i32 0, i32 8
  %11 = getelementptr inbounds nuw %"struct.duckdb_zstd::ZSTD_cwksp", ptr %10, i32 0, i32 0
  %12 = load ptr, ptr %11, align 8, !tbaa !89
  %13 = load ptr, ptr %3, align 8, !tbaa !13
  %14 = icmp eq ptr %12, %13
  %15 = select i1 %14, i64 0, i64 5248
  %16 = load ptr, ptr %3, align 8, !tbaa !13
  %17 = getelementptr inbounds nuw %"struct.duckdb_zstd::ZSTD_CCtx_s", ptr %16, i32 0, i32 8
  %18 = call noundef i64 @_ZN11duckdb_zstdL17ZSTD_cwksp_sizeofEPKNS_10ZSTD_cwkspE(ptr noundef %17)
  %19 = add i64 %15, %18
  %20 = load ptr, ptr %3, align 8, !tbaa !13
  %21 = getelementptr inbounds nuw %"struct.duckdb_zstd::ZSTD_CCtx_s", ptr %20, i32 0, i32 42
  call void @llvm.memcpy.p0.p0.i64(ptr align 8 %4, ptr align 8 %21, i64 40, i1 false), !tbaa.struct !90
  %22 = call noundef i64 @_ZN11duckdb_zstdL21ZSTD_sizeof_localDictENS_14ZSTD_localDictE(ptr noundef byval(%"struct.duckdb_zstd::ZSTD_localDict") align 8 %4)
  %23 = add i64 %19, %22
  %24 = load ptr, ptr %3, align 8, !tbaa !13
  %25 = call noundef i64 @_ZN11duckdb_zstdL17ZSTD_sizeof_mtctxEPKNS_11ZSTD_CCtx_sE(ptr noundef %24)
  %26 = add i64 %23, %25
  store i64 %26, ptr %2, align 8
  br label %27

27:                                               ; preds = %8, %7
  %28 = load i64, ptr %2, align 8
  ret i64 %28
}